target datalayout = "e-m:e-p270:32:32-p271:32:32-p272:64:64-i64:64-i128:128-f80:128-n8:16:32:64-S128"
target triple = "x86_64-pc-linux-gnu"

%"class.std::__cxx11::basic_string" = type { %"struct.std::__cxx11::basic_string<char>::_Alloc_hider", i64, %union.anon }
%"struct.std::__cxx11::basic_string<char>::_Alloc_hider" = type { ptr }
%union.anon = type { i64, [8 x i8] }
%struct.ThreadData = type { [4 x i32], i32, i8, [4 x [4 x i16]], i32, %struct.pos, i8, [50 x [4 x i16]], [13 x %struct.WinnersType], [14 x %struct.moveType], [50 x %struct.moveType], [50 x %struct.moveType], double, i32, i32, [8192 x %struct.relRanksType], ptr, %class.Moves }
%struct.pos = type { [4 x [4 x i16]], [4 x i16], [4 x [4 x i8]], [4 x i32], [50 x [4 x i16]], [50 x i32], [50 x %struct.moveType], i32, i32, [4 x %struct.highCardType], [4 x %struct.highCardType] }
%struct.highCardType = type { i32, i32 }
%struct.WinnersType = type { i32, [4 x %struct.WinnerEntryType] }
%struct.WinnerEntryType = type { i32, i32, i32, i32, i32 }
%struct.moveType = type { i32, i32, i32, i32 }
%struct.relRanksType = type { [15 x [4 x %struct.absRankType]] }
%struct.absRankType = type { i8, i8 }
%class.Moves = type { i32, i32, i32, i32, i32, i32, i32, i32, i32, [13 x %"struct.Moves::trackType"], ptr, [13 x [4 x %struct.movePlyType]], ptr, [13 x [4 x i32]], [13 x %"class.std::__cxx11::basic_string"], [13 x [4 x %"struct.Moves::moveStatType"]], [13 x [4 x %"struct.Moves::moveStatType"]], [13 x [4 x %"struct.Moves::moveStatsType"]], [13 x [4 x %"struct.Moves::moveStatsType"]], %"struct.Moves::moveStatsType", %"struct.Moves::moveStatsType", [16 x { i64, i64 }] }
%"struct.Moves::trackType" = type { i32, i32, [4 x i32], [4 x i32], %struct.trickDataType, [4 x %struct.extCard], [4 x i32], [4 x [4 x i32]], [4 x i32] }
%struct.trickDataType = type { [4 x i32], i32, i32, i32, i32, i32 }
%struct.extCard = type { i32, i32, i32 }
%struct.movePlyType = type { [14 x %struct.moveType], i32, i32 }
%"struct.Moves::moveStatType" = type { i32, i32, i32, i32 }
%"struct.Moves::moveStatsType" = type { i32, [13 x %"struct.Moves::moveStatType"] }

@bitMapRank = global [16 x i16] [i16 0, i16 0, i16 1, i16 2, i16 4, i16 8, i16 16, i16 32, i16 64, i16 128, i16 256, i16 512, i16 1024, i16 2048, i16 4096, i16 8192], align 16
@counttable = global [8192 x i32] zeroinitializer, align 16

; Function Attrs: mustprogress uwtable
define void @_Z13SetDealTablesP10ThreadData(ptr noundef %0) #4 {
  %2 = alloca ptr, align 8
  %3 = alloca i32, align 4
  %4 = alloca i32, align 4
  %5 = alloca i32, align 4
  %6 = alloca i32, align 4
  %7 = alloca [4 x [15 x i32]], align 16
  %8 = alloca i32, align 4
  %9 = alloca i32, align 4
  %10 = alloca i32, align 4
  %11 = alloca ptr, align 8
  %12 = alloca i32, align 4
  %13 = alloca i32, align 4
  %14 = alloca i32, align 4
  %15 = alloca i32, align 4
  %16 = alloca i32, align 4
  store ptr %0, ptr %2, align 8
  store i32 1, ptr %3, align 4
  store i32 2, ptr %4, align 4
  store i32 0, ptr %5, align 4
  br label %17

17:                                               ; preds = %51, %1
  %18 = load i32, ptr %5, align 4
  %19 = icmp slt i32 %18, 4
  br i1 %19, label %20, label %54

20:                                               ; preds = %17
  store i32 1, ptr %6, align 4
  br label %21

21:                                               ; preds = %47, %20
  %22 = load i32, ptr %6, align 4
  %23 = icmp sle i32 %22, 13
  br i1 %23, label %24, label %50

24:                                               ; preds = %21
  %25 = load ptr, ptr %2, align 8
  %26 = getelementptr inbounds nuw %struct.ThreadData, ptr %25, i32 0, i32 15
  %27 = getelementptr inbounds [8192 x %struct.relRanksType], ptr %26, i64 0, i64 0
  %28 = getelementptr inbounds nuw %struct.relRanksType, ptr %27, i32 0, i32 0
  %29 = load i32, ptr %6, align 4
  %30 = sext i32 %29 to i64
  %31 = getelementptr inbounds [15 x [4 x %struct.absRankType]], ptr %28, i64 0, i64 %30
  %32 = load i32, ptr %5, align 4
  %33 = sext i32 %32 to i64
  %34 = getelementptr inbounds [4 x %struct.absRankType], ptr %31, i64 0, i64 %33
  %35 = getelementptr inbounds nuw %struct.absRankType, ptr %34, i32 0, i32 1
  store i8 -1, ptr %35, align 1
  %36 = load ptr, ptr %2, align 8
  %37 = getelementptr inbounds nuw %struct.ThreadData, ptr %36, i32 0, i32 15
  %38 = getelementptr inbounds [8192 x %struct.relRanksType], ptr %37, i64 0, i64 0
  %39 = getelementptr inbounds nuw %struct.relRanksType, ptr %38, i32 0, i32 0
  %40 = load i32, ptr %6, align 4
  %41 = sext i32 %40 to i64
  %42 = getelementptr inbounds [15 x [4 x %struct.absRankType]], ptr %39, i64 0, i64 %41
  %43 = load i32, ptr %5, align 4
  %44 = sext i32 %43 to i64
  %45 = getelementptr inbounds [4 x %struct.absRankType], ptr %42, i64 0, i64 %44
  %46 = getelementptr inbounds nuw %struct.absRankType, ptr %45, i32 0, i32 0
  store i8 0, ptr %46, align 2
  br label %47

47:                                               ; preds = %24
  %48 = load i32, ptr %6, align 4
  %49 = add nsw i32 %48, 1
  store i32 %49, ptr %6, align 4
  br label %21, !llvm.loop !23

50:                                               ; preds = %21
  br label %51

51:                                               ; preds = %50
  %52 = load i32, ptr %5, align 4
  %53 = add nsw i32 %52, 1
  store i32 %53, ptr %5, align 4
  br label %17, !llvm.loop !24

54:                                               ; preds = %17
  store i32 0, ptr %8, align 4
  br label %55

55:                                               ; preds = %107, %54
  %56 = load i32, ptr %8, align 4
  %57 = icmp slt i32 %56, 4
  br i1 %57, label %58, label %110

58:                                               ; preds = %55
  store i32 14, ptr %9, align 4
  br label %59

59:                                               ; preds = %103, %58
  %60 = load i32, ptr %9, align 4
  %61 = icmp sge i32 %60, 2
  br i1 %61, label %62, label %106

62:                                               ; preds = %59
  %63 = load i32, ptr %8, align 4
  %64 = sext i32 %63 to i64
  %65 = getelementptr inbounds [4 x [15 x i32]], ptr %7, i64 0, i64 %64
  %66 = load i32, ptr %9, align 4
  %67 = sext i32 %66 to i64
  %68 = getelementptr inbounds [15 x i32], ptr %65, i64 0, i64 %67
  store i32 0, ptr %68, align 4
  store i32 0, ptr %10, align 4
  br label %69

69:                                               ; preds = %99, %62
  %70 = load i32, ptr %10, align 4
  %71 = icmp slt i32 %70, 4
  br i1 %71, label %72, label %102

72:                                               ; preds = %69
  %73 = load ptr, ptr %2, align 8
  %74 = getelementptr inbounds nuw %struct.ThreadData, ptr %73, i32 0, i32 3
  %75 = load i32, ptr %10, align 4
  %76 = sext i32 %75 to i64
  %77 = getelementptr inbounds [4 x [4 x i16]], ptr %74, i64 0, i64 %76
  %78 = load i32, ptr %8, align 4
  %79 = sext i32 %78 to i64
  %80 = getelementptr inbounds [4 x i16], ptr %77, i64 0, i64 %79
  %81 = load i16, ptr %80, align 2
  %82 = zext i16 %81 to i32
  %83 = load i32, ptr %9, align 4
  %84 = sext i32 %83 to i64
  %85 = getelementptr inbounds [16 x i16], ptr @bitMapRank, i64 0, i64 %84
  %86 = load i16, ptr %85, align 2
  %87 = zext i16 %86 to i32
  %88 = and i32 %82, %87
  %89 = icmp ne i32 %88, 0
  br i1 %89, label %90, label %98

90:                                               ; preds = %72
  %91 = load i32, ptr %10, align 4
  %92 = load i32, ptr %8, align 4
  %93 = sext i32 %92 to i64
  %94 = getelementptr inbounds [4 x [15 x i32]], ptr %7, i64 0, i64 %93
  %95 = load i32, ptr %9, align 4
  %96 = sext i32 %95 to i64
  %97 = getelementptr inbounds [15 x i32], ptr %94, i64 0, i64 %96
  store i32 %91, ptr %97, align 4
  br label %102

98:                                               ; preds = %72
  br label %99

99:                                               ; preds = %98
  %100 = load i32, ptr %10, align 4
  %101 = add nsw i32 %100, 1
  store i32 %101, ptr %10, align 4
  br label %69, !llvm.loop !25

102:                                              ; preds = %90, %69
  br label %103

103:                                              ; preds = %102
  %104 = load i32, ptr %9, align 4
  %105 = add nsw i32 %104, -1
  store i32 %105, ptr %9, align 4
  br label %59, !llvm.loop !26

106:                                              ; preds = %59
  br label %107

107:                                              ; preds = %106
  %108 = load i32, ptr %8, align 4
  %109 = add nsw i32 %108, 1
  store i32 %109, ptr %8, align 4
  br label %55, !llvm.loop !27

110:                                              ; preds = %55
  %111 = load ptr, ptr %2, align 8
  %112 = getelementptr inbounds nuw %struct.ThreadData, ptr %111, i32 0, i32 16
  %113 = load ptr, ptr %112, align 8
  %114 = getelementptr inbounds [4 x [15 x i32]], ptr %7, i64 0, i64 0
  %115 = load ptr, ptr %113, align 8
  %116 = getelementptr inbounds ptr, ptr %115, i64 2
  %117 = load ptr, ptr %116, align 8
  call void %117(ptr noundef nonnull align 8 dereferenceable(8) %113, ptr noundef %114)
  store i32 1, ptr %12, align 4
  br label %118

118:                                              ; preds = %242, %110
  %119 = load i32, ptr %12, align 4
  %120 = icmp ult i32 %119, 8192
  br i1 %120, label %121, label %245

121:                                              ; preds = %118
  %122 = load i32, ptr %12, align 4
  %123 = load i32, ptr %3, align 4
  %124 = shl i32 %123, 1
  %125 = icmp uge i32 %122, %124
  br i1 %125, label %126, label %131

126:                                              ; preds = %121
  %127 = load i32, ptr %3, align 4
  %128 = shl i32 %127, 1
  store i32 %128, ptr %3, align 4
  %129 = load i32, ptr %4, align 4
  %130 = add i32 %129, 1
  store i32 %130, ptr %4, align 4
  br label %131

131:                                              ; preds = %126, %121
  %132 = load ptr, ptr %2, align 8
  %133 = getelementptr inbounds nuw %struct.ThreadData, ptr %132, i32 0, i32 15
  %134 = load i32, ptr %12, align 4
  %135 = load i32, ptr %3, align 4
  %136 = xor i32 %134, %135
  %137 = zext i32 %136 to i64
  %138 = getelementptr inbounds [8192 x %struct.relRanksType], ptr %133, i64 0, i64 %137
  %139 = load ptr, ptr %2, align 8
  %140 = getelementptr inbounds nuw %struct.ThreadData, ptr %139, i32 0, i32 15
  %141 = load i32, ptr %12, align 4
  %142 = zext i32 %141 to i64
  %143 = getelementptr inbounds [8192 x %struct.relRanksType], ptr %140, i64 0, i64 %142
  call void @llvm.memcpy.p0.p0.i64(ptr align 8 %143, ptr align 8 %138, i64 120, i1 false)
  %144 = load ptr, ptr %2, align 8
  %145 = getelementptr inbounds nuw %struct.ThreadData, ptr %144, i32 0, i32 15
  %146 = load i32, ptr %12, align 4
  %147 = zext i32 %146 to i64
  %148 = getelementptr inbounds [8192 x %struct.relRanksType], ptr %145, i64 0, i64 %147
  store ptr %148, ptr %11, align 8
  %149 = load i32, ptr %12, align 4
  %150 = zext i32 %149 to i64
  %151 = getelementptr inbounds [8192 x i32], ptr @counttable, i64 0, i64 %150
  %152 = load i32, ptr %151, align 4
  store i32 %152, ptr %13, align 4
  %153 = load i32, ptr %13, align 4
  store i32 %153, ptr %14, align 4
  br label %154

154:                                              ; preds = %206, %131
  %155 = load i32, ptr %14, align 4
  %156 = icmp sge i32 %155, 2
  br i1 %156, label %157, label %209

157:                                              ; preds = %154
  store i32 0, ptr %15, align 4
  br label %158

158:                                              ; preds = %202, %157
  %159 = load i32, ptr %15, align 4
  %160 = icmp slt i32 %159, 4
  br i1 %160, label %161, label %205

161:                                              ; preds = %158
  %162 = load ptr, ptr %11, align 8
  %163 = getelementptr inbounds nuw %struct.relRanksType, ptr %162, i32 0, i32 0
  %164 = load i32, ptr %14, align 4
  %165 = sub nsw i32 %164, 1
  %166 = sext i32 %165 to i64
  %167 = getelementptr inbounds [15 x [4 x %struct.absRankType]], ptr %163, i64 0, i64 %166
  %168 = load i32, ptr %15, align 4
  %169 = sext i32 %168 to i64
  %170 = getelementptr inbounds [4 x %struct.absRankType], ptr %167, i64 0, i64 %169
  %171 = getelementptr inbounds nuw %struct.absRankType, ptr %170, i32 0, i32 1
  %172 = load i8, ptr %171, align 1
  %173 = load ptr, ptr %11, align 8
  %174 = getelementptr inbounds nuw %struct.relRanksType, ptr %173, i32 0, i32 0
  %175 = load i32, ptr %14, align 4
  %176 = sext i32 %175 to i64
  %177 = getelementptr inbounds [15 x [4 x %struct.absRankType]], ptr %174, i64 0, i64 %176
  %178 = load i32, ptr %15, align 4
  %179 = sext i32 %178 to i64
  %180 = getelementptr inbounds [4 x %struct.absRankType], ptr %177, i64 0, i64 %179
  %181 = getelementptr inbounds nuw %struct.absRankType, ptr %180, i32 0, i32 1
  store i8 %172, ptr %181, align 1
  %182 = load ptr, ptr %11, align 8
  %183 = getelementptr inbounds nuw %struct.relRanksType, ptr %182, i32 0, i32 0
  %184 = load i32, ptr %14, align 4
  %185 = sub nsw i32 %184, 1
  %186 = sext i32 %185 to i64
  %187 = getelementptr inbounds [15 x [4 x %struct.absRankType]], ptr %183, i64 0, i64 %186
  %188 = load i32, ptr %15, align 4
  %189 = sext i32 %188 to i64
  %190 = getelementptr inbounds [4 x %struct.absRankType], ptr %187, i64 0, i64 %189
  %191 = getelementptr inbounds nuw %struct.absRankType, ptr %190, i32 0, i32 0
  %192 = load i8, ptr %191, align 1
  %193 = load ptr, ptr %11, align 8
  %194 = getelementptr inbounds nuw %struct.relRanksType, ptr %193, i32 0, i32 0
  %195 = load i32, ptr %14, align 4
  %196 = sext i32 %195 to i64
  %197 = getelementptr inbounds [15 x [4 x %struct.absRankType]], ptr %194, i64 0, i64 %196
  %198 = load i32, ptr %15, align 4
  %199 = sext i32 %198 to i64
  %200 = getelementptr inbounds [4 x %struct.absRankType], ptr %197, i64 0, i64 %199
  %201 = getelementptr inbounds nuw %struct.absRankType, ptr %200, i32 0, i32 0
  store i8 %192, ptr %201, align 1
  br label %202

202:                                              ; preds = %161
  %203 = load i32, ptr %15, align 4
  %204 = add nsw i32 %203, 1
  store i32 %204, ptr %15, align 4
  br label %158, !llvm.loop !28

205:                                              ; preds = %158
  br label %206

206:                                              ; preds = %205
  %207 = load i32, ptr %14, align 4
  %208 = add nsw i32 %207, -1
  store i32 %208, ptr %14, align 4
  br label %154, !llvm.loop !29

209:                                              ; preds = %154
  store i32 0, ptr %16, align 4
  br label %210

210:                                              ; preds = %238, %209
  %211 = load i32, ptr %16, align 4
  %212 = icmp slt i32 %211, 4
  br i1 %212, label %213, label %241

213:                                              ; preds = %210
  %214 = load i32, ptr %16, align 4
  %215 = sext i32 %214 to i64
  %216 = getelementptr inbounds [4 x [15 x i32]], ptr %7, i64 0, i64 %215
  %217 = load i32, ptr %4, align 4
  %218 = zext i32 %217 to i64
  %219 = getelementptr inbounds [15 x i32], ptr %216, i64 0, i64 %218
  %220 = load i32, ptr %219, align 4
  %221 = trunc i32 %220 to i8
  %222 = load ptr, ptr %11, align 8
  %223 = getelementptr inbounds nuw %struct.relRanksType, ptr %222, i32 0, i32 0
  %224 = getelementptr inbounds [15 x [4 x %struct.absRankType]], ptr %223, i64 0, i64 1
  %225 = load i32, ptr %16, align 4
  %226 = sext i32 %225 to i64
  %227 = getelementptr inbounds [4 x %struct.absRankType], ptr %224, i64 0, i64 %226
  %228 = getelementptr inbounds nuw %struct.absRankType, ptr %227, i32 0, i32 1
  store i8 %221, ptr %228, align 1
  %229 = load i32, ptr %4, align 4
  %230 = trunc i32 %229 to i8
  %231 = load ptr, ptr %11, align 8
  %232 = getelementptr inbounds nuw %struct.relRanksType, ptr %231, i32 0, i32 0
  %233 = getelementptr inbounds [15 x [4 x %struct.absRankType]], ptr %232, i64 0, i64 1
  %234 = load i32, ptr %16, align 4
  %235 = sext i32 %234 to i64
  %236 = getelementptr inbounds [4 x %struct.absRankType], ptr %233, i64 0, i64 %235
  %237 = getelementptr inbounds nuw %struct.absRankType, ptr %236, i32 0, i32 0
  store i8 %230, ptr %237, align 1
  br label %238

238:                                              ; preds = %213
  %239 = load i32, ptr %16, align 4
  %240 = add nsw i32 %239, 1
  store i32 %240, ptr %16, align 4
  br label %210, !llvm.loop !30

241:                                              ; preds = %210
  br label %242

242:                                              ; preds = %241
  %243 = load i32, ptr %12, align 4
  %244 = add i32 %243, 1
  store i32 %244, ptr %12, align 4
  br label %118, !llvm.loop !31

245:                                              ; preds = %118
  ret void
}