; Function Attrs: mustprogress uwtable
define void @_Z13SetDealTablesP10ThreadData(ptr noundef captures(none) %0) local_unnamed_addr #3 {
  %2 = alloca [4 x [15 x i32]], align 16
  %3 = getelementptr inbounds nuw i8, ptr %0, i64 4944
  br label %.preheader82

.preheader82:                                     ; preds = %1, %8
  %indvars.iv97 = phi i64 [ 0, %1 ], [ %indvars.iv.next98, %8 ]
  br label %5

.preheader81:                                     ; preds = %8
  %4 = getelementptr inbounds nuw i8, ptr %0, i64 22
  br label %.preheader80

5:                                                ; preds = %.preheader82, %5
  %indvars.iv = phi i64 [ 1, %.preheader82 ], [ %indvars.iv.next, %5 ]
  %6 = getelementptr inbounds nuw [15 x [4 x %struct.absRankType]], ptr %3, i64 0, i64 %indvars.iv, i64 %indvars.iv97
  %7 = getelementptr inbounds nuw i8, ptr %6, i64 1
  store i8 -1, ptr %7, align 1
  store i8 0, ptr %6, align 2
  %indvars.iv.next = add nuw nsw i64 %indvars.iv, 1
  %exitcond.not = icmp eq i64 %indvars.iv.next, 14
  br i1 %exitcond.not, label %8, label %5, !llvm.loop !25

8:                                                ; preds = %5
  %indvars.iv.next98 = add nuw nsw i64 %indvars.iv97, 1
  %exitcond100.not = icmp eq i64 %indvars.iv.next98, 4
  br i1 %exitcond100.not, label %.preheader81, label %.preheader82, !llvm.loop !26

.preheader80:                                     ; preds = %.preheader81, %21
  %indvars.iv108 = phi i64 [ 0, %.preheader81 ], [ %indvars.iv.next109, %21 ]
  br label %9

9:                                                ; preds = %.preheader80, %.loopexit
  %indvars.iv105 = phi i64 [ 14, %.preheader80 ], [ %indvars.iv.next106, %.loopexit ]
  %10 = getelementptr inbounds nuw [4 x [15 x i32]], ptr %2, i64 0, i64 %indvars.iv108, i64 %indvars.iv105
  store i32 0, ptr %10, align 4
  %11 = getelementptr inbounds nuw [16 x i16], ptr @bitMapRank, i64 0, i64 %indvars.iv105
  %12 = load i16, ptr %11, align 2
  br label %13

13:                                               ; preds = %9, %19
  %indvars.iv101 = phi i64 [ 0, %9 ], [ %indvars.iv.next102, %19 ]
  %14 = getelementptr inbounds nuw [4 x [4 x i16]], ptr %4, i64 0, i64 %indvars.iv101, i64 %indvars.iv108
  %15 = load i16, ptr %14, align 2
  %16 = and i16 %12, %15
  %.not77 = icmp eq i16 %16, 0
  br i1 %.not77, label %19, label %17

17:                                               ; preds = %13
  %18 = trunc nuw nsw i64 %indvars.iv101 to i32
  store i32 %18, ptr %10, align 4
  br label %.loopexit

19:                                               ; preds = %13
  %indvars.iv.next102 = add nuw nsw i64 %indvars.iv101, 1
  %exitcond104.not = icmp eq i64 %indvars.iv.next102, 4
  br i1 %exitcond104.not, label %.loopexit, label %13, !llvm.loop !27

.loopexit:                                        ; preds = %19, %17
  %indvars.iv.next106 = add nsw i64 %indvars.iv105, -1
  %20 = icmp ugt i64 %indvars.iv105, 2
  br i1 %20, label %9, label %21, !llvm.loop !28

21:                                               ; preds = %.loopexit
  %indvars.iv.next109 = add nuw nsw i64 %indvars.iv108, 1
  %exitcond111.not = icmp eq i64 %indvars.iv.next109, 4
  br i1 %exitcond111.not, label %22, label %.preheader80, !llvm.loop !29

22:                                               ; preds = %21
  %23 = getelementptr inbounds nuw i8, ptr %0, i64 987984
  %24 = load ptr, ptr %23, align 8
  %25 = load ptr, ptr %24, align 8
  %26 = getelementptr inbounds nuw i8, ptr %25, i64 16
  %27 = load ptr, ptr %26, align 8
  call void %27(ptr noundef nonnull align 8 dereferenceable(8) %24, ptr noundef nonnull %2)
  br label %28

28:                                               ; preds = %22, %59
  %indvars.iv123 = phi i64 [ 1, %22 ], [ %indvars.iv.next124, %59 ]
  %.06794 = phi i32 [ 1, %22 ], [ %spec.select78, %59 ]
  %.06992 = phi i32 [ 2, %22 ], [ %spec.select, %59 ]
  %29 = shl i32 %.06794, 1
  %30 = zext i32 %29 to i64
  %.not = icmp samesign uge i64 %indvars.iv123, %30
  %31 = zext i1 %.not to i32
  %spec.select = add i32 %.06992, %31
  %spec.select78 = select i1 %.not, i32 %29, i32 %.06794
  %32 = trunc nuw nsw i64 %indvars.iv123 to i32
  %33 = xor i32 %spec.select78, %32
  %34 = zext i32 %33 to i64
  %35 = getelementptr inbounds nuw [8192 x %struct.relRanksType], ptr %3, i64 0, i64 %34
  %36 = getelementptr inbounds nuw [8192 x %struct.relRanksType], ptr %3, i64 0, i64 %indvars.iv123
  call void @llvm.memcpy.p0.p0.i64(ptr noundef nonnull align 8 dereferenceable(120) %36, ptr noundef nonnull align 8 dereferenceable(120) %35, i64 120, i1 false)
  %37 = getelementptr inbounds nuw [8192 x i32], ptr @counttable, i64 0, i64 %indvars.iv123
  %38 = load i32, ptr %37, align 4
  %39 = icmp sgt i32 %38, 1
  br i1 %39, label %.preheader.preheader, label %.preheader79

.preheader.preheader:                             ; preds = %28
  %40 = zext nneg i32 %38 to i64
  br label %.preheader

.preheader79:                                     ; preds = %51, %28
  %41 = zext i32 %spec.select to i64
  %42 = getelementptr inbounds nuw i8, ptr %36, i64 8
  %43 = trunc i32 %spec.select to i8
  br label %53

.preheader:                                       ; preds = %.preheader.preheader, %51
  %indvars.iv116 = phi i64 [ %40, %.preheader.preheader ], [ %indvars.iv.next117, %51 ]
  %indvars.iv.next117 = add nsw i64 %indvars.iv116, -1
  br label %44

44:                                               ; preds = %.preheader, %44
  %indvars.iv112 = phi i64 [ 0, %.preheader ], [ %indvars.iv.next113, %44 ]
  %45 = getelementptr inbounds nuw [15 x [4 x %struct.absRankType]], ptr %36, i64 0, i64 %indvars.iv.next117, i64 %indvars.iv112
  %46 = getelementptr inbounds nuw i8, ptr %45, i64 1
  %47 = load i8, ptr %46, align 1
  %48 = getelementptr inbounds nuw [15 x [4 x %struct.absRankType]], ptr %36, i64 0, i64 %indvars.iv116, i64 %indvars.iv112
  %49 = getelementptr inbounds nuw i8, ptr %48, i64 1
  store i8 %47, ptr %49, align 1
  %50 = load i8, ptr %45, align 1
  store i8 %50, ptr %48, align 1
  %indvars.iv.next113 = add nuw nsw i64 %indvars.iv112, 1
  %exitcond115.not = icmp eq i64 %indvars.iv.next113, 4
  br i1 %exitcond115.not, label %51, label %44, !llvm.loop !30

51:                                               ; preds = %44
  %52 = icmp sgt i64 %indvars.iv116, 2
  br i1 %52, label %.preheader, label %.preheader79, !llvm.loop !31

53:                                               ; preds = %.preheader79, %53
  %indvars.iv119 = phi i64 [ 0, %.preheader79 ], [ %indvars.iv.next120, %53 ]
  %54 = getelementptr inbounds nuw [4 x [15 x i32]], ptr %2, i64 0, i64 %indvars.iv119, i64 %41
  %55 = load i32, ptr %54, align 4
  %56 = trunc i32 %55 to i8
  %57 = getelementptr inbounds nuw [4 x %struct.absRankType], ptr %42, i64 0, i64 %indvars.iv119
  %58 = getelementptr inbounds nuw i8, ptr %57, i64 1
  store i8 %56, ptr %58, align 1
  store i8 %43, ptr %57, align 1
  %indvars.iv.next120 = add nuw nsw i64 %indvars.iv119, 1
  %exitcond122.not = icmp eq i64 %indvars.iv.next120, 4
  br i1 %exitcond122.not, label %59, label %53, !llvm.loop !32

59:                                               ; preds = %53
  %indvars.iv.next124 = add nuw nsw i64 %indvars.iv123, 1
  %exitcond126.not = icmp eq i64 %indvars.iv.next124, 8192
  br i1 %exitcond126.not, label %60, label %28, !llvm.loop !33

60:                                               ; preds = %59
  ret void
}